ccopy_reg
_reconstructor
p1
(cIDP_Post
IdeaCollection
p2
c__builtin__
object
p3
NtRp4
(dp5
S'hashlist'
p6
(lp7
S'END'
p8
asS'current_time'
p9
(I2016
I4
I28
I21
I58
tp10
sS'name'
p11
S'ebdab7247a98e7c94de93066d24c38afd9a0ca298e3684b47abb1131fcc9f200'
p12
sS'creationtime'
p13
g10
sS'passhash'
p14
g12
sS'post_texts'
p15
(iPostDict
ControllerDict
p16
(dp17
S'data'
p18
(dp19
sbsS'payMe'
p20
I01
sS'last_post'
p21
g10
sb.